; Function Attrs: nounwind sspstrong uwtable
define internal void @vfio_intx_eoi(ptr noundef %0) #0 {
  %2 = alloca %struct.timeval, align 8
  %3 = getelementptr inbounds nuw i8, ptr %0, i64 216
  %4 = load i8, ptr %3, align 8, !range !6, !noundef !7
  %5 = trunc nuw i8 %4 to i1
  br i1 %5, label %6, label %26

6:                                                ; preds = %1
  %7 = getelementptr inbounds i8, ptr %0, i64 -2752
  %8 = getelementptr inbounds nuw i8, ptr %0, i64 72
  %9 = load ptr, ptr %8, align 8
  %10 = load i32, ptr @trace_events_enabled_count, align 4
  %.not.i.i = icmp eq i32 %10, 0
  br i1 %.not.i.i, label %trace_vfio_intx_eoi.exit, label %11, !prof !5

11:                                               ; preds = %6
  %12 = load i16, ptr @_TRACE_VFIO_INTX_EOI_DSTATE, align 2
  %.not2.i.i = icmp eq i16 %12, 0
  br i1 %.not2.i.i, label %trace_vfio_intx_eoi.exit, label %13

13:                                               ; preds = %11
  %14 = load i32, ptr @qemu_loglevel, align 4
  %15 = and i32 %14, 32768
  %.not3.i.i = icmp eq i32 %15, 0
  br i1 %.not3.i.i, label %trace_vfio_intx_eoi.exit, label %16

16:                                               ; preds = %13
  %17 = load i8, ptr @message_with_timestamp, align 1, !range !6, !noundef !7
  %18 = trunc nuw i8 %17 to i1
  br i1 %18, label %19, label %25

19:                                               ; preds = %16
  call void @llvm.lifetime.start.p0(i64 16, ptr nonnull %2) #26
  call void @llvm.memset.p0.i64(ptr noundef nonnull align 8 dereferenceable(16) %2, i8 0, i64 16, i1 false), !annotation !4
  %20 = call i32 @gettimeofday(ptr noundef nonnull %2, ptr noundef null) #26
  %21 = tail call i32 @qemu_get_thread_id() #26
  %22 = load i64, ptr %2, align 8
  %23 = getelementptr inbounds nuw i8, ptr %2, i64 8
  %24 = load i64, ptr %23, align 8
  tail call void (ptr, ...) @qemu_log(ptr noundef nonnull @.str.72, i32 noundef %21, i64 noundef %22, i64 noundef %24, ptr noundef %9) #26
  call void @llvm.lifetime.end.p0(i64 16, ptr nonnull %2) #26
  br label %trace_vfio_intx_eoi.exit

25:                                               ; preds = %16
  tail call void (ptr, ...) @qemu_log(ptr noundef nonnull @.str.73, ptr noundef %9) #26
  br label %trace_vfio_intx_eoi.exit

trace_vfio_intx_eoi.exit:                         ; preds = %6, %11, %13, %19, %25
  store i8 0, ptr %3, align 8
  tail call void @pci_set_irq(ptr noundef nonnull %7, i32 noundef 0) #26
  tail call void @vfio_unmask_single_irqindex(ptr noundef nonnull %0, i32 noundef 0) #26
  br label %26

26:                                               ; preds = %1, %trace_vfio_intx_eoi.exit
  ret void
}